target datalayout = "e-m:e-p270:32:32-p271:32:32-p272:64:64-i64:64-i128:128-f80:128-n8:16:32:64-S128"
target triple = "x86_64-pc-linux-gnu"

%struct._YR_COMPILER = type { i32, i32, i32, i32, i32, [1 x %struct.__jmp_buf_tag], ptr, ptr, ptr, ptr, ptr, ptr, ptr, ptr, ptr, ptr, ptr, ptr, ptr, ptr, i32, i32, [4 x ptr], [4 x ptr], i32, i32, i32, [16 x ptr], i32, [16 x ptr], i32, [256 x i8], [1024 x i8], ptr, i16, [1024 x i8], ptr, %struct.rq, %struct.cs, ptr, i32 }
%struct.__jmp_buf_tag = type { [8 x i64], i32, %struct.__sigset_t }
%struct.__sigset_t = type { [16 x i64] }
%struct.rq = type { ptr, ptr }
%struct.cs = type { ptr, ptr }
%struct._yc_string = type { %struct.anon, i32, i32, %union.anon, %union.anon.0, %union.anon.1, i32 }
%struct.anon = type { ptr }
%union.anon = type { ptr }
%union.anon.0 = type { ptr }
%union.anon.1 = type { ptr }

@.str.2 = private unnamed_addr constant [2 x i8] c"$\00", align 1

; Function Attrs: nounwind uwtable
define ptr @yr_parser_lookup_string(ptr noundef %0, ptr noundef %1) #0 {
  %3 = alloca ptr, align 8
  %4 = alloca ptr, align 8
  %5 = alloca ptr, align 8
  %6 = alloca ptr, align 8
  %7 = alloca ptr, align 8
  %8 = alloca i32, align 4
  store ptr %0, ptr %4, align 8, !tbaa !3
  store ptr %1, ptr %5, align 8, !tbaa !27
  call void @llvm.lifetime.start.p0(i64 8, ptr %6) #5
  call void @llvm.lifetime.start.p0(i64 8, ptr %7) #5
  %9 = load ptr, ptr %4, align 8, !tbaa !3
  %10 = call ptr @yara_yyget_extra(ptr noundef %9)
  store ptr %10, ptr %7, align 8, !tbaa !28
  %11 = load ptr, ptr %7, align 8, !tbaa !28
  %12 = getelementptr inbounds nuw %struct._YR_COMPILER, ptr %11, i32 0, i32 19
  %13 = load ptr, ptr %12, align 8, !tbaa !30
  store ptr %13, ptr %6, align 8, !tbaa !31
  br label %14

14:                                               ; preds = %40, %2
  %15 = load ptr, ptr %6, align 8, !tbaa !31
  %16 = icmp eq ptr %15, null
  br i1 %16, label %23, label %17

17:                                               ; preds = %14
  %18 = load ptr, ptr %6, align 8, !tbaa !31
  %19 = getelementptr inbounds nuw %struct._yc_string, ptr %18, i32 0, i32 1
  %20 = load i32, ptr %19, align 8, !tbaa !32
  %21 = and i32 %20, 4096
  %22 = icmp ne i32 %21, 0
  br label %23

23:                                               ; preds = %17, %14
  %24 = phi i1 [ true, %14 ], [ %22, %17 ]
  %25 = xor i1 %24, true
  br i1 %25, label %26, label %46

26:                                               ; preds = %23
  %27 = load ptr, ptr %6, align 8, !tbaa !31
  %28 = getelementptr inbounds nuw %struct._yc_string, ptr %27, i32 0, i32 3
  %29 = load ptr, ptr %28, align 8, !tbaa !7
  %30 = load ptr, ptr %5, align 8, !tbaa !27
  %31 = call i32 @strcmp(ptr noundef %29, ptr noundef %30) #6
  %32 = icmp eq i32 %31, 0
  br i1 %32, label %33, label %40

33:                                               ; preds = %26
  %34 = load ptr, ptr %6, align 8, !tbaa !31
  %35 = getelementptr inbounds nuw %struct._yc_string, ptr %34, i32 0, i32 5
  %36 = load ptr, ptr %35, align 8, !tbaa !7
  %37 = icmp eq ptr %36, null
  br i1 %37, label %38, label %40

38:                                               ; preds = %33
  %39 = load ptr, ptr %6, align 8, !tbaa !31
  store ptr %39, ptr %3, align 8
  store i32 1, ptr %8, align 4
  br label %54

40:                                               ; preds = %33, %26
  %41 = load ptr, ptr %7, align 8, !tbaa !28
  %42 = getelementptr inbounds nuw %struct._YR_COMPILER, ptr %41, i32 0, i32 8
  %43 = load ptr, ptr %42, align 8, !tbaa !35
  %44 = load ptr, ptr %6, align 8, !tbaa !31
  %45 = call ptr @yr_arena_next_address(ptr noundef %43, ptr noundef %44, i64 noundef 48)
  store ptr %45, ptr %6, align 8, !tbaa !31
  br label %14

46:                                               ; preds = %23
  %47 = load ptr, ptr %7, align 8, !tbaa !28
  %48 = getelementptr inbounds nuw %struct._YR_COMPILER, ptr %47, i32 0, i32 31
  %49 = getelementptr inbounds [256 x i8], ptr %48, i64 0, i64 0
  %50 = load ptr, ptr %5, align 8, !tbaa !27
  %51 = call i64 @cli_strlcpy(ptr noundef %49, ptr noundef %50, i64 noundef 256)
  %52 = load ptr, ptr %7, align 8, !tbaa !28
  %53 = getelementptr inbounds nuw %struct._YR_COMPILER, ptr %52, i32 0, i32 4
  store i32 19, ptr %53, align 8, !tbaa !36
  store ptr null, ptr %3, align 8
  store i32 1, ptr %8, align 4
  br label %54

54:                                               ; preds = %46, %38
  call void @llvm.lifetime.end.p0(i64 8, ptr %7) #5
  call void @llvm.lifetime.end.p0(i64 8, ptr %6) #5
  %55 = load ptr, ptr %3, align 8
  ret ptr %55
}

; Function Attrs: nounwind uwtable
define i32 @yr_parser_emit(ptr noundef %0, i8 noundef signext %1, ptr noundef %2) #0 {
  %4 = alloca ptr, align 8
  %5 = alloca i8, align 1
  %6 = alloca ptr, align 8
  store ptr %0, ptr %4, align 8, !tbaa !3
  store i8 %1, ptr %5, align 1, !tbaa !7
  store ptr %2, ptr %6, align 8, !tbaa !8
  %7 = load ptr, ptr %4, align 8, !tbaa !3
  %8 = call ptr @yara_yyget_extra(ptr noundef %7)
  %9 = getelementptr inbounds nuw %struct._YR_COMPILER, ptr %8, i32 0, i32 9
  %10 = load ptr, ptr %9, align 8, !tbaa !10
  %11 = load ptr, ptr %6, align 8, !tbaa !8
  %12 = call i32 @yr_arena_write_data(ptr noundef %10, ptr noundef %5, i64 noundef 1, ptr noundef %11)
  ret i32 %12
}

; Function Attrs: nounwind uwtable
define i32 @yr_parser_emit_with_arg(ptr noundef %0, i8 noundef signext %1, i64 noundef %2, ptr noundef %3) #0 {
  %5 = alloca ptr, align 8
  %6 = alloca i8, align 1
  %7 = alloca i64, align 8
  %8 = alloca ptr, align 8
  %9 = alloca i32, align 4
  store ptr %0, ptr %5, align 8, !tbaa !3
  store i8 %1, ptr %6, align 1, !tbaa !7
  store i64 %2, ptr %7, align 8, !tbaa !24
  store ptr %3, ptr %8, align 8, !tbaa !8
  call void @llvm.lifetime.start.p0(i64 4, ptr %9) #5
  %10 = load ptr, ptr %5, align 8, !tbaa !3
  %11 = call ptr @yara_yyget_extra(ptr noundef %10)
  %12 = getelementptr inbounds nuw %struct._YR_COMPILER, ptr %11, i32 0, i32 9
  %13 = load ptr, ptr %12, align 8, !tbaa !10
  %14 = load ptr, ptr %8, align 8, !tbaa !8
  %15 = call i32 @yr_arena_write_data(ptr noundef %13, ptr noundef %6, i64 noundef 1, ptr noundef %14)
  store i32 %15, ptr %9, align 4, !tbaa !26
  %16 = load i32, ptr %9, align 4, !tbaa !26
  %17 = icmp eq i32 %16, 0
  br i1 %17, label %18, label %24

18:                                               ; preds = %4
  %19 = load ptr, ptr %5, align 8, !tbaa !3
  %20 = call ptr @yara_yyget_extra(ptr noundef %19)
  %21 = getelementptr inbounds nuw %struct._YR_COMPILER, ptr %20, i32 0, i32 9
  %22 = load ptr, ptr %21, align 8, !tbaa !10
  %23 = call i32 @yr_arena_write_data(ptr noundef %22, ptr noundef %7, i64 noundef 8, ptr noundef null)
  store i32 %23, ptr %9, align 4, !tbaa !26
  br label %24

24:                                               ; preds = %18, %4
  %25 = load i32, ptr %9, align 4, !tbaa !26
  call void @llvm.lifetime.end.p0(i64 4, ptr %9) #5
  ret i32 %25
}

; Function Attrs: nounwind uwtable
define i32 @yr_parser_reduce_string_identifier(ptr noundef %0, ptr noundef %1, i8 noundef signext %2) #0 {
  %4 = alloca ptr, align 8
  %5 = alloca ptr, align 8
  %6 = alloca i8, align 1
  %7 = alloca ptr, align 8
  %8 = alloca ptr, align 8
  store ptr %0, ptr %4, align 8, !tbaa !3
  store ptr %1, ptr %5, align 8, !tbaa !27
  store i8 %2, ptr %6, align 1, !tbaa !7
  call void @llvm.lifetime.start.p0(i64 8, ptr %7) #5
  call void @llvm.lifetime.start.p0(i64 8, ptr %8) #5
  %9 = load ptr, ptr %4, align 8, !tbaa !3
  %10 = call ptr @yara_yyget_extra(ptr noundef %9)
  store ptr %10, ptr %8, align 8, !tbaa !28
  %11 = load ptr, ptr %5, align 8, !tbaa !27
  %12 = call i32 @strcmp(ptr noundef %11, ptr noundef @.str.2) #6
  %13 = icmp eq i32 %12, 0
  br i1 %13, label %14, label %64

14:                                               ; preds = %3
  %15 = load ptr, ptr %8, align 8, !tbaa !28
  %16 = getelementptr inbounds nuw %struct._YR_COMPILER, ptr %15, i32 0, i32 25
  %17 = load i32, ptr %16, align 4, !tbaa !79
  %18 = icmp sge i32 %17, 0
  br i1 %18, label %19, label %60

19:                                               ; preds = %14
  %20 = load ptr, ptr %4, align 8, !tbaa !3
  %21 = load ptr, ptr %8, align 8, !tbaa !28
  %22 = getelementptr inbounds nuw %struct._YR_COMPILER, ptr %21, i32 0, i32 25
  %23 = load i32, ptr %22, align 4, !tbaa !79
  %24 = sext i32 %23 to i64
  %25 = call i32 @yr_parser_emit_with_arg(ptr noundef %20, i8 noundef signext 41, i64 noundef %24, ptr noundef null)
  %26 = load ptr, ptr %4, align 8, !tbaa !3
  %27 = load i8, ptr %6, align 1, !tbaa !7
  %28 = call i32 @yr_parser_emit(ptr noundef %26, i8 noundef signext %27, ptr noundef null)
  %29 = load i8, ptr %6, align 1, !tbaa !7
  %30 = sext i8 %29 to i32
  %31 = icmp ne i32 %30, 30
  br i1 %31, label %32, label %59

32:                                               ; preds = %19
  %33 = load ptr, ptr %8, align 8, !tbaa !28
  %34 = getelementptr inbounds nuw %struct._YR_COMPILER, ptr %33, i32 0, i32 19
  %35 = load ptr, ptr %34, align 8, !tbaa !30
  store ptr %35, ptr %7, align 8, !tbaa !31
  br label %36

36:                                               ; preds = %48, %32
  %37 = load ptr, ptr %7, align 8, !tbaa !31
  %38 = icmp eq ptr %37, null
  br i1 %38, label %45, label %39

39:                                               ; preds = %36
  %40 = load ptr, ptr %7, align 8, !tbaa !31
  %41 = getelementptr inbounds nuw %struct._yc_string, ptr %40, i32 0, i32 1
  %42 = load i32, ptr %41, align 8, !tbaa !32
  %43 = and i32 %42, 4096
  %44 = icmp ne i32 %43, 0
  br label %45

45:                                               ; preds = %39, %36
  %46 = phi i1 [ true, %36 ], [ %44, %39 ]
  %47 = xor i1 %46, true
  br i1 %47, label %48, label %58

48:                                               ; preds = %45
  %49 = load ptr, ptr %7, align 8, !tbaa !31
  %50 = getelementptr inbounds nuw %struct._yc_string, ptr %49, i32 0, i32 1
  %51 = load i32, ptr %50, align 8, !tbaa !32
  %52 = and i32 %51, -513
  store i32 %52, ptr %50, align 8, !tbaa !32
  %53 = load ptr, ptr %8, align 8, !tbaa !28
  %54 = getelementptr inbounds nuw %struct._YR_COMPILER, ptr %53, i32 0, i32 8
  %55 = load ptr, ptr %54, align 8, !tbaa !35
  %56 = load ptr, ptr %7, align 8, !tbaa !31
  %57 = call ptr @yr_arena_next_address(ptr noundef %55, ptr noundef %56, i64 noundef 48)
  store ptr %57, ptr %7, align 8, !tbaa !31
  br label %36

58:                                               ; preds = %45
  br label %59

59:                                               ; preds = %58, %19
  br label %63

60:                                               ; preds = %14
  %61 = load ptr, ptr %8, align 8, !tbaa !28
  %62 = getelementptr inbounds nuw %struct._YR_COMPILER, ptr %61, i32 0, i32 4
  store i32 21, ptr %62, align 8, !tbaa !36
  br label %63

63:                                               ; preds = %60, %59
  br label %92

64:                                               ; preds = %3
  %65 = load ptr, ptr %4, align 8, !tbaa !3
  %66 = load ptr, ptr %5, align 8, !tbaa !27
  %67 = call ptr @yr_parser_lookup_string(ptr noundef %65, ptr noundef %66)
  store ptr %67, ptr %7, align 8, !tbaa !31
  %68 = load ptr, ptr %7, align 8, !tbaa !31
  %69 = icmp ne ptr %68, null
  br i1 %69, label %70, label %91

70:                                               ; preds = %64
  %71 = load ptr, ptr %4, align 8, !tbaa !3
  %72 = load ptr, ptr %7, align 8, !tbaa !31
  %73 = ptrtoint ptr %72 to i64
  %74 = call i32 @yr_parser_emit_with_arg_reloc(ptr noundef %71, i8 noundef signext 22, i64 noundef %73, ptr noundef null)
  %75 = load i8, ptr %6, align 1, !tbaa !7
  %76 = sext i8 %75 to i32
  %77 = icmp ne i32 %76, 30
  br i1 %77, label %78, label %83

78:                                               ; preds = %70
  %79 = load ptr, ptr %7, align 8, !tbaa !31
  %80 = getelementptr inbounds nuw %struct._yc_string, ptr %79, i32 0, i32 1
  %81 = load i32, ptr %80, align 8, !tbaa !32
  %82 = and i32 %81, -513
  store i32 %82, ptr %80, align 8, !tbaa !32
  br label %83

83:                                               ; preds = %78, %70
  %84 = load ptr, ptr %4, align 8, !tbaa !3
  %85 = load i8, ptr %6, align 1, !tbaa !7
  %86 = call i32 @yr_parser_emit(ptr noundef %84, i8 noundef signext %85, ptr noundef null)
  %87 = load ptr, ptr %7, align 8, !tbaa !31
  %88 = getelementptr inbounds nuw %struct._yc_string, ptr %87, i32 0, i32 1
  %89 = load i32, ptr %88, align 8, !tbaa !32
  %90 = or i32 %89, 1
  store i32 %90, ptr %88, align 8, !tbaa !32
  br label %91

91:                                               ; preds = %83, %64
  br label %92

92:                                               ; preds = %91, %63
  %93 = load ptr, ptr %8, align 8, !tbaa !28
  %94 = getelementptr inbounds nuw %struct._YR_COMPILER, ptr %93, i32 0, i32 4
  %95 = load i32, ptr %94, align 8, !tbaa !36
  call void @llvm.lifetime.end.p0(i64 8, ptr %8) #5
  call void @llvm.lifetime.end.p0(i64 8, ptr %7) #5
  ret i32 %95
}