; Function Attrs: nounwind uwtable
define i32 @yr_parser_reduce_string_identifier(ptr noundef %0, ptr noundef %1, i8 noundef signext %2) local_unnamed_addr #0 {
sub_0:
  %3 = alloca i8, align 1
  %4 = alloca i8, align 1
  %5 = alloca i8, align 1
  %6 = alloca i64, align 8
  %7 = tail call ptr @yara_yyget_extra(ptr noundef %0) #6
  %8 = load i8, ptr %1, align 1
  %.not = icmp eq i8 %8, 36
  br i1 %.not, label %.tail, label %.tail.thread

.tail:                                            ; preds = %sub_0
  %9 = getelementptr inbounds nuw i8, ptr %1, i64 1
  %10 = load i8, ptr %9, align 1
  %11 = icmp eq i8 %10, 0
  br i1 %11, label %12, label %.tail.thread

12:                                               ; preds = %.tail
  %13 = getelementptr inbounds nuw i8, ptr %7, i64 412
  %14 = load i32, ptr %13, align 4, !tbaa !63
  %15 = icmp sgt i32 %14, -1
  br i1 %15, label %16, label %47

16:                                               ; preds = %12
  %17 = zext nneg i32 %14 to i64
  call void @llvm.lifetime.start.p0(i64 1, ptr nonnull %5)
  call void @llvm.lifetime.start.p0(i64 8, ptr nonnull %6)
  store i8 41, ptr %5, align 1, !tbaa !3
  store i64 %17, ptr %6, align 8, !tbaa !21
  %18 = tail call ptr @yara_yyget_extra(ptr noundef %0) #6
  %19 = getelementptr inbounds nuw i8, ptr %18, i64 248
  %20 = load ptr, ptr %19, align 8, !tbaa !6
  %21 = call i32 @yr_arena_write_data(ptr noundef %20, ptr noundef nonnull %5, i64 noundef 1, ptr noundef null) #6
  %22 = icmp eq i32 %21, 0
  br i1 %22, label %23, label %yr_parser_emit_with_arg.exit

23:                                               ; preds = %16
  %24 = call ptr @yara_yyget_extra(ptr noundef %0) #6
  %25 = getelementptr inbounds nuw i8, ptr %24, i64 248
  %26 = load ptr, ptr %25, align 8, !tbaa !6
  %27 = call i32 @yr_arena_write_data(ptr noundef %26, ptr noundef nonnull %6, i64 noundef 8, ptr noundef null) #6
  br label %yr_parser_emit_with_arg.exit

yr_parser_emit_with_arg.exit:                     ; preds = %16, %23
  call void @llvm.lifetime.end.p0(i64 1, ptr nonnull %5)
  call void @llvm.lifetime.end.p0(i64 8, ptr nonnull %6)
  call void @llvm.lifetime.start.p0(i64 1, ptr nonnull %4)
  store i8 %2, ptr %4, align 1, !tbaa !3
  %28 = call ptr @yara_yyget_extra(ptr noundef %0) #6
  %29 = getelementptr inbounds nuw i8, ptr %28, i64 248
  %30 = load ptr, ptr %29, align 8, !tbaa !6
  %31 = call i32 @yr_arena_write_data(ptr noundef %30, ptr noundef nonnull %4, i64 noundef 1, ptr noundef null) #6
  call void @llvm.lifetime.end.p0(i64 1, ptr nonnull %4)
  %.not28 = icmp eq i8 %2, 30
  br i1 %.not28, label %.critedge, label %32

32:                                               ; preds = %yr_parser_emit_with_arg.exit
  %33 = getelementptr inbounds nuw i8, ptr %7, i64 328
  %34 = load ptr, ptr %33, align 8, !tbaa !24
  %35 = icmp eq ptr %34, null
  br i1 %35, label %.critedge, label %.lr.ph

.lr.ph:                                           ; preds = %32
  %36 = getelementptr inbounds nuw i8, ptr %7, i64 240
  br label %37

37:                                               ; preds = %.lr.ph, %42
  %.033 = phi ptr [ %34, %.lr.ph ], [ %45, %42 ]
  %38 = getelementptr inbounds nuw i8, ptr %.033, i64 8
  %39 = load i32, ptr %38, align 8, !tbaa !25
  %40 = and i32 %39, 4096
  %41 = icmp eq i32 %40, 0
  br i1 %41, label %42, label %.critedge

42:                                               ; preds = %37
  %43 = and i32 %39, -4609
  store i32 %43, ptr %38, align 8, !tbaa !25
  %44 = load ptr, ptr %36, align 8, !tbaa !28
  %45 = call ptr @yr_arena_next_address(ptr noundef %44, ptr noundef nonnull %.033, i64 noundef 48) #6
  %46 = icmp eq ptr %45, null
  br i1 %46, label %.critedge, label %37

47:                                               ; preds = %12
  %48 = getelementptr inbounds nuw i8, ptr %7, i64 16
  store i32 21, ptr %48, align 8, !tbaa !29
  br label %.critedge

.tail.thread:                                     ; preds = %sub_0, %.tail
  %49 = tail call ptr @yara_yyget_extra(ptr noundef %0) #6
  %50 = getelementptr inbounds nuw i8, ptr %49, i64 328
  %51 = load ptr, ptr %50, align 8, !tbaa !24
  %52 = icmp eq ptr %51, null
  br i1 %52, label %yr_parser_lookup_string.exit.thread, label %.lr.ph.i

.lr.ph.i:                                         ; preds = %.tail.thread
  %53 = getelementptr inbounds nuw i8, ptr %49, i64 240
  br label %54

54:                                               ; preds = %68, %.lr.ph.i
  %.01416.i = phi ptr [ %51, %.lr.ph.i ], [ %70, %68 ]
  %55 = getelementptr inbounds nuw i8, ptr %.01416.i, i64 8
  %56 = load i32, ptr %55, align 8, !tbaa !25
  %57 = and i32 %56, 4096
  %58 = icmp eq i32 %57, 0
  br i1 %58, label %59, label %yr_parser_lookup_string.exit.thread

59:                                               ; preds = %54
  %60 = getelementptr inbounds nuw i8, ptr %.01416.i, i64 16
  %61 = load ptr, ptr %60, align 8, !tbaa !3
  %62 = tail call i32 @strcmp(ptr noundef nonnull dereferenceable(1) %61, ptr noundef nonnull dereferenceable(1) %1) #7
  %63 = icmp eq i32 %62, 0
  br i1 %63, label %64, label %68

64:                                               ; preds = %59
  %65 = getelementptr inbounds nuw i8, ptr %.01416.i, i64 32
  %66 = load ptr, ptr %65, align 8, !tbaa !3
  %67 = icmp eq ptr %66, null
  br i1 %67, label %yr_parser_lookup_string.exit, label %68

68:                                               ; preds = %64, %59
  %69 = load ptr, ptr %53, align 8, !tbaa !28
  %70 = tail call ptr @yr_arena_next_address(ptr noundef %69, ptr noundef nonnull %.01416.i, i64 noundef 48) #6
  %71 = icmp eq ptr %70, null
  br i1 %71, label %yr_parser_lookup_string.exit.thread, label %54

yr_parser_lookup_string.exit.thread:              ; preds = %54, %68, %.tail.thread
  %72 = getelementptr inbounds nuw i8, ptr %49, i64 692
  %73 = tail call i64 @cli_strlcpy(ptr noundef nonnull %72, ptr noundef nonnull %1, i64 noundef 256) #6
  %74 = getelementptr inbounds nuw i8, ptr %49, i64 16
  store i32 19, ptr %74, align 8, !tbaa !29
  br label %.critedge

yr_parser_lookup_string.exit:                     ; preds = %64
  %75 = getelementptr inbounds nuw i8, ptr %.01416.i, i64 8
  %76 = ptrtoint ptr %.01416.i to i64
  %77 = tail call i32 @yr_parser_emit_with_arg_reloc(ptr noundef %0, i8 noundef signext 22, i64 noundef %76, ptr noundef null)
  %.not27 = icmp eq i8 %2, 30
  br i1 %.not27, label %81, label %78

78:                                               ; preds = %yr_parser_lookup_string.exit
  %79 = load i32, ptr %75, align 8, !tbaa !25
  %80 = and i32 %79, -513
  store i32 %80, ptr %75, align 8, !tbaa !25
  br label %81

81:                                               ; preds = %78, %yr_parser_lookup_string.exit
  call void @llvm.lifetime.start.p0(i64 1, ptr nonnull %3)
  store i8 %2, ptr %3, align 1, !tbaa !3
  %82 = tail call ptr @yara_yyget_extra(ptr noundef %0) #6
  %83 = getelementptr inbounds nuw i8, ptr %82, i64 248
  %84 = load ptr, ptr %83, align 8, !tbaa !6
  %85 = call i32 @yr_arena_write_data(ptr noundef %84, ptr noundef nonnull %3, i64 noundef 1, ptr noundef null) #6
  call void @llvm.lifetime.end.p0(i64 1, ptr nonnull %3)
  %86 = load i32, ptr %75, align 8, !tbaa !25
  %87 = or i32 %86, 1
  store i32 %87, ptr %75, align 8, !tbaa !25
  br label %.critedge

.critedge:                                        ; preds = %37, %42, %32, %yr_parser_lookup_string.exit.thread, %81, %47, %yr_parser_emit_with_arg.exit
  %88 = getelementptr inbounds nuw i8, ptr %7, i64 16
  %89 = load i32, ptr %88, align 8, !tbaa !29
  ret i32 %89
}